target datalayout = "e-m:e-p270:32:32-p271:32:32-p272:64:64-i64:64-i128:128-f80:128-n8:16:32:64-S128"
target triple = "x86_64-pc-linux-gnu"

%struct.OnigEncodingTypeST = type { ptr, ptr, i32, i32, ptr, ptr, ptr, ptr, ptr, ptr, ptr, ptr, ptr, ptr, ptr, ptr, ptr, ptr, ptr, i32, i32, i32 }
%struct.OnigMatchParamStruct = type { i32, i64, i64, ptr, ptr, ptr, i32, ptr, i32 }
%struct.re_registers = type { i32, i32, ptr, ptr, ptr }
%struct.re_pattern_buffer = type { ptr, ptr, ptr, i32, i32, ptr, ptr, i32, i32, i32, i32, i32, i32, i32, i32, i32, ptr, ptr, i32, ptr, i32, ptr, i32, i32, i32, i32, i32, i32, ptr, ptr, [256 x i8], i32, i32, i32, ptr }

@MatchStackLimit = internal global i32 0, align 4
@RetryLimitInMatch = internal global i64 10000000, align 8
@RetryLimitInSearch = internal global i64 0, align 8
@DefaultProgressCallout = internal global ptr null, align 8
@DefaultRetractionCallout = internal global ptr null, align 8

; Function Attrs: nounwind uwtable
define dso_local void @onig_free_match_param_content(ptr noundef %0) #0 {
  %2 = alloca ptr, align 8
  store ptr %0, ptr %2, align 8, !tbaa !4
  %3 = load ptr, ptr %2, align 8, !tbaa !4
  %4 = getelementptr inbounds nuw %struct.OnigMatchParamStruct, ptr %3, i32 0, i32 7
  %5 = load ptr, ptr %4, align 8, !tbaa !43
  %6 = icmp ne ptr %5, null
  br i1 %6, label %7, label %13

7:                                                ; preds = %1
  %8 = load ptr, ptr %2, align 8, !tbaa !4
  %9 = getelementptr inbounds nuw %struct.OnigMatchParamStruct, ptr %8, i32 0, i32 7
  %10 = load ptr, ptr %9, align 8, !tbaa !43
  call void @free(ptr noundef %10) #9
  %11 = load ptr, ptr %2, align 8, !tbaa !4
  %12 = getelementptr inbounds nuw %struct.OnigMatchParamStruct, ptr %11, i32 0, i32 7
  store ptr null, ptr %12, align 8, !tbaa !43
  br label %13

13:                                               ; preds = %7, %1
  ret void
}

; Function Attrs: nounwind uwtable
define dso_local i32 @onig_initialize_match_param(ptr noundef %0) #0 {
  %2 = alloca ptr, align 8
  store ptr %0, ptr %2, align 8, !tbaa !4
  %3 = load i32, ptr @MatchStackLimit, align 4, !tbaa !9
  %4 = load ptr, ptr %2, align 8, !tbaa !4
  %5 = getelementptr inbounds nuw %struct.OnigMatchParamStruct, ptr %4, i32 0, i32 0
  store i32 %3, ptr %5, align 8, !tbaa !11
  %6 = load i64, ptr @RetryLimitInMatch, align 8, !tbaa !14
  %7 = load ptr, ptr %2, align 8, !tbaa !4
  %8 = getelementptr inbounds nuw %struct.OnigMatchParamStruct, ptr %7, i32 0, i32 1
  store i64 %6, ptr %8, align 8, !tbaa !15
  %9 = load i64, ptr @RetryLimitInSearch, align 8, !tbaa !14
  %10 = load ptr, ptr %2, align 8, !tbaa !4
  %11 = getelementptr inbounds nuw %struct.OnigMatchParamStruct, ptr %10, i32 0, i32 2
  store i64 %9, ptr %11, align 8, !tbaa !16
  %12 = load ptr, ptr %2, align 8, !tbaa !4
  %13 = getelementptr inbounds nuw %struct.OnigMatchParamStruct, ptr %12, i32 0, i32 3
  store ptr null, ptr %13, align 8, !tbaa !20
  %14 = load ptr, ptr @DefaultProgressCallout, align 8, !tbaa !17
  %15 = load ptr, ptr %2, align 8, !tbaa !4
  %16 = getelementptr inbounds nuw %struct.OnigMatchParamStruct, ptr %15, i32 0, i32 4
  store ptr %14, ptr %16, align 8, !tbaa !18
  %17 = load ptr, ptr @DefaultRetractionCallout, align 8, !tbaa !17
  %18 = load ptr, ptr %2, align 8, !tbaa !4
  %19 = getelementptr inbounds nuw %struct.OnigMatchParamStruct, ptr %18, i32 0, i32 5
  store ptr %17, ptr %19, align 8, !tbaa !19
  %20 = load ptr, ptr %2, align 8, !tbaa !4
  %21 = getelementptr inbounds nuw %struct.OnigMatchParamStruct, ptr %20, i32 0, i32 6
  store i32 0, ptr %21, align 8, !tbaa !42
  %22 = load ptr, ptr %2, align 8, !tbaa !4
  %23 = getelementptr inbounds nuw %struct.OnigMatchParamStruct, ptr %22, i32 0, i32 7
  store ptr null, ptr %23, align 8, !tbaa !43
  %24 = load ptr, ptr %2, align 8, !tbaa !4
  %25 = getelementptr inbounds nuw %struct.OnigMatchParamStruct, ptr %24, i32 0, i32 8
  store i32 0, ptr %25, align 8, !tbaa !44
  ret i32 0
}

; Function Attrs: nounwind uwtable
define dso_local i32 @onig_search(ptr noundef %0, ptr noundef %1, ptr noundef %2, ptr noundef %3, ptr noundef %4, ptr noundef %5, i32 noundef %6) #0 {
  %8 = alloca ptr, align 8
  %9 = alloca ptr, align 8
  %10 = alloca ptr, align 8
  %11 = alloca ptr, align 8
  %12 = alloca ptr, align 8
  %13 = alloca ptr, align 8
  %14 = alloca i32, align 4
  %15 = alloca i32, align 4
  %16 = alloca %struct.OnigMatchParamStruct, align 8
  %17 = alloca ptr, align 8
  store ptr %0, ptr %8, align 8, !tbaa !57
  store ptr %1, ptr %9, align 8, !tbaa !60
  store ptr %2, ptr %10, align 8, !tbaa !60
  store ptr %3, ptr %11, align 8, !tbaa !60
  store ptr %4, ptr %12, align 8, !tbaa !60
  store ptr %5, ptr %13, align 8, !tbaa !21
  store i32 %6, ptr %14, align 4, !tbaa !9
  call void @llvm.lifetime.start.p0(i64 4, ptr %15) #9
  call void @llvm.lifetime.start.p0(i64 72, ptr %16) #9
  call void @llvm.lifetime.start.p0(i64 8, ptr %17) #9
  %18 = call i32 @onig_initialize_match_param(ptr noundef %16)
  %19 = load ptr, ptr %12, align 8, !tbaa !60
  %20 = load ptr, ptr %11, align 8, !tbaa !60
  %21 = icmp ugt ptr %19, %20
  br i1 %21, label %22, label %24

22:                                               ; preds = %7
  %23 = load ptr, ptr %12, align 8, !tbaa !60
  store ptr %23, ptr %17, align 8, !tbaa !60
  br label %26

24:                                               ; preds = %7
  %25 = load ptr, ptr %10, align 8, !tbaa !60
  store ptr %25, ptr %17, align 8, !tbaa !60
  br label %26

26:                                               ; preds = %24, %22
  %27 = load ptr, ptr %8, align 8, !tbaa !57
  %28 = load ptr, ptr %9, align 8, !tbaa !60
  %29 = load ptr, ptr %10, align 8, !tbaa !60
  %30 = load ptr, ptr %11, align 8, !tbaa !60
  %31 = load ptr, ptr %12, align 8, !tbaa !60
  %32 = load ptr, ptr %17, align 8, !tbaa !60
  %33 = load ptr, ptr %13, align 8, !tbaa !21
  %34 = load i32, ptr %14, align 4, !tbaa !9
  %35 = call i32 @search_in_range(ptr noundef %27, ptr noundef %28, ptr noundef %29, ptr noundef %30, ptr noundef %31, ptr noundef %32, ptr noundef %33, i32 noundef %34, ptr noundef %16)
  store i32 %35, ptr %15, align 4, !tbaa !9
  call void @onig_free_match_param_content(ptr noundef %16)
  %36 = load i32, ptr %15, align 4, !tbaa !9
  call void @llvm.lifetime.end.p0(i64 8, ptr %17) #9
  call void @llvm.lifetime.end.p0(i64 72, ptr %16) #9
  call void @llvm.lifetime.end.p0(i64 4, ptr %15) #9
  ret i32 %36
}

; Function Attrs: nounwind uwtable
define dso_local i32 @onig_scan(ptr noundef %0, ptr noundef %1, ptr noundef %2, ptr noundef %3, i32 noundef %4, ptr noundef %5, ptr noundef %6) #0 {
  %8 = alloca i32, align 4
  %9 = alloca ptr, align 8
  %10 = alloca ptr, align 8
  %11 = alloca ptr, align 8
  %12 = alloca ptr, align 8
  %13 = alloca i32, align 4
  %14 = alloca ptr, align 8
  %15 = alloca ptr, align 8
  %16 = alloca i32, align 4
  %17 = alloca i32, align 4
  %18 = alloca i32, align 4
  %19 = alloca ptr, align 8
  %20 = alloca i32, align 4
  store ptr %0, ptr %9, align 8, !tbaa !57
  store ptr %1, ptr %10, align 8, !tbaa !60
  store ptr %2, ptr %11, align 8, !tbaa !60
  store ptr %3, ptr %12, align 8, !tbaa !21
  store i32 %4, ptr %13, align 4, !tbaa !9
  store ptr %5, ptr %14, align 8, !tbaa !17
  store ptr %6, ptr %15, align 8, !tbaa !17
  call void @llvm.lifetime.start.p0(i64 4, ptr %16) #9
  call void @llvm.lifetime.start.p0(i64 4, ptr %17) #9
  call void @llvm.lifetime.start.p0(i64 4, ptr %18) #9
  call void @llvm.lifetime.start.p0(i64 8, ptr %19) #9
  %21 = load i32, ptr %13, align 4, !tbaa !9
  %22 = and i32 %21, 4096
  %23 = icmp ne i32 %22, 0
  br i1 %23, label %24, label %38

24:                                               ; preds = %7
  %25 = load ptr, ptr %9, align 8, !tbaa !57
  %26 = getelementptr inbounds nuw %struct.re_pattern_buffer, ptr %25, i32 0, i32 17
  %27 = load ptr, ptr %26, align 8, !tbaa !107
  %28 = getelementptr inbounds nuw %struct.OnigEncodingTypeST, ptr %27, i32 0, i32 18
  %29 = load ptr, ptr %28, align 8, !tbaa !79
  %30 = load ptr, ptr %10, align 8, !tbaa !60
  %31 = load ptr, ptr %11, align 8, !tbaa !60
  %32 = call i32 %29(ptr noundef %30, ptr noundef %31)
  %33 = icmp ne i32 %32, 0
  br i1 %33, label %35, label %34

34:                                               ; preds = %24
  store i32 -400, ptr %8, align 4
  store i32 1, ptr %20, align 4
  br label %118

35:                                               ; preds = %24
  %36 = load i32, ptr %13, align 4, !tbaa !9
  %37 = and i32 %36, -4097
  store i32 %37, ptr %13, align 4, !tbaa !9
  br label %38

38:                                               ; preds = %35, %7
  store i32 0, ptr %17, align 4, !tbaa !9
  %39 = load ptr, ptr %10, align 8, !tbaa !60
  store ptr %39, ptr %19, align 8, !tbaa !60
  br label %40

40:                                               ; preds = %115, %38
  br label %41

41:                                               ; preds = %40
  %42 = load ptr, ptr %9, align 8, !tbaa !57
  %43 = load ptr, ptr %10, align 8, !tbaa !60
  %44 = load ptr, ptr %11, align 8, !tbaa !60
  %45 = load ptr, ptr %19, align 8, !tbaa !60
  %46 = load ptr, ptr %11, align 8, !tbaa !60
  %47 = load ptr, ptr %12, align 8, !tbaa !21
  %48 = load i32, ptr %13, align 4, !tbaa !9
  %49 = call i32 @onig_search(ptr noundef %42, ptr noundef %43, ptr noundef %44, ptr noundef %45, ptr noundef %46, ptr noundef %47, i32 noundef %48)
  store i32 %49, ptr %16, align 4, !tbaa !9
  %50 = load i32, ptr %16, align 4, !tbaa !9
  %51 = icmp sge i32 %50, 0
  br i1 %51, label %52, label %109

52:                                               ; preds = %41
  %53 = load ptr, ptr %14, align 8, !tbaa !17
  %54 = load i32, ptr %17, align 4, !tbaa !9
  %55 = load i32, ptr %16, align 4, !tbaa !9
  %56 = load ptr, ptr %12, align 8, !tbaa !21
  %57 = load ptr, ptr %15, align 8, !tbaa !17
  %58 = call i32 %53(i32 noundef %54, i32 noundef %55, ptr noundef %56, ptr noundef %57)
  store i32 %58, ptr %18, align 4, !tbaa !9
  %59 = load i32, ptr %17, align 4, !tbaa !9
  %60 = add nsw i32 %59, 1
  store i32 %60, ptr %17, align 4, !tbaa !9
  %61 = load i32, ptr %18, align 4, !tbaa !9
  %62 = icmp ne i32 %61, 0
  br i1 %62, label %63, label %65

63:                                               ; preds = %52
  %64 = load i32, ptr %18, align 4, !tbaa !9
  store i32 %64, ptr %8, align 4
  store i32 1, ptr %20, align 4
  br label %118

65:                                               ; preds = %52
  %66 = load ptr, ptr %12, align 8, !tbaa !21
  %67 = getelementptr inbounds nuw %struct.re_registers, ptr %66, i32 0, i32 3
  %68 = load ptr, ptr %67, align 8, !tbaa !28
  %69 = getelementptr inbounds i32, ptr %68, i64 0
  %70 = load i32, ptr %69, align 4, !tbaa !9
  %71 = sext i32 %70 to i64
  %72 = load ptr, ptr %19, align 8, !tbaa !60
  %73 = load ptr, ptr %10, align 8, !tbaa !60
  %74 = ptrtoint ptr %72 to i64
  %75 = ptrtoint ptr %73 to i64
  %76 = sub i64 %74, %75
  %77 = icmp eq i64 %71, %76
  br i1 %77, label %78, label %94

78:                                               ; preds = %65
  %79 = load ptr, ptr %19, align 8, !tbaa !60
  %80 = load ptr, ptr %11, align 8, !tbaa !60
  %81 = icmp uge ptr %79, %80
  br i1 %81, label %82, label %83

82:                                               ; preds = %78
  br label %116

83:                                               ; preds = %78
  %84 = load ptr, ptr %9, align 8, !tbaa !57
  %85 = getelementptr inbounds nuw %struct.re_pattern_buffer, ptr %84, i32 0, i32 17
  %86 = load ptr, ptr %85, align 8, !tbaa !107
  %87 = getelementptr inbounds nuw %struct.OnigEncodingTypeST, ptr %86, i32 0, i32 0
  %88 = load ptr, ptr %87, align 8, !tbaa !130
  %89 = load ptr, ptr %19, align 8, !tbaa !60
  %90 = call i32 %88(ptr noundef %89)
  %91 = load ptr, ptr %19, align 8, !tbaa !60
  %92 = sext i32 %90 to i64
  %93 = getelementptr inbounds i8, ptr %91, i64 %92
  store ptr %93, ptr %19, align 8, !tbaa !60
  br label %103

94:                                               ; preds = %65
  %95 = load ptr, ptr %10, align 8, !tbaa !60
  %96 = load ptr, ptr %12, align 8, !tbaa !21
  %97 = getelementptr inbounds nuw %struct.re_registers, ptr %96, i32 0, i32 3
  %98 = load ptr, ptr %97, align 8, !tbaa !28
  %99 = getelementptr inbounds i32, ptr %98, i64 0
  %100 = load i32, ptr %99, align 4, !tbaa !9
  %101 = sext i32 %100 to i64
  %102 = getelementptr inbounds i8, ptr %95, i64 %101
  store ptr %102, ptr %19, align 8, !tbaa !60
  br label %103

103:                                              ; preds = %94, %83
  %104 = load ptr, ptr %19, align 8, !tbaa !60
  %105 = load ptr, ptr %11, align 8, !tbaa !60
  %106 = icmp ugt ptr %104, %105
  br i1 %106, label %107, label %108

107:                                              ; preds = %103
  br label %116

108:                                              ; preds = %103
  br label %115

109:                                              ; preds = %41
  %110 = load i32, ptr %16, align 4, !tbaa !9
  %111 = icmp eq i32 %110, -1
  br i1 %111, label %112, label %113

112:                                              ; preds = %109
  br label %116

113:                                              ; preds = %109
  %114 = load i32, ptr %16, align 4, !tbaa !9
  store i32 %114, ptr %8, align 4
  store i32 1, ptr %20, align 4
  br label %118

115:                                              ; preds = %108
  br label %40

116:                                              ; preds = %112, %107, %82
  %117 = load i32, ptr %17, align 4, !tbaa !9
  store i32 %117, ptr %8, align 4
  store i32 1, ptr %20, align 4
  br label %118

118:                                              ; preds = %116, %113, %63, %34
  call void @llvm.lifetime.end.p0(i64 8, ptr %19) #9
  call void @llvm.lifetime.end.p0(i64 4, ptr %18) #9
  call void @llvm.lifetime.end.p0(i64 4, ptr %17) #9
  call void @llvm.lifetime.end.p0(i64 4, ptr %16) #9
  %119 = load i32, ptr %8, align 4
  ret i32 %119
}