; Function Attrs: nounwind uwtable
define dso_local i32 @onig_scan(ptr noundef %0, ptr noundef %1, ptr noundef %2, ptr noundef %3, i32 noundef %4, ptr noundef readonly captures(none) %5, ptr noundef %6) local_unnamed_addr #4 {
  %8 = alloca %struct.OnigMatchParamStruct, align 8
  %9 = and i32 %4, 4096
  %.not = icmp eq i32 %9, 0
  br i1 %.not, label %18, label %10

10:                                               ; preds = %7
  %11 = getelementptr inbounds nuw i8, ptr %0, i64 96
  %12 = load ptr, ptr %11, align 8, !tbaa !97
  %13 = getelementptr inbounds nuw i8, ptr %12, i64 136
  %14 = load ptr, ptr %13, align 8, !tbaa !72
  %15 = tail call i32 %14(ptr noundef %1, ptr noundef %2) #30
  %.not45 = icmp eq i32 %15, 0
  br i1 %.not45, label %.loopexit, label %16

16:                                               ; preds = %10
  %17 = and i32 %4, -4097
  br label %18

18:                                               ; preds = %16, %7
  %.040 = phi i32 [ %17, %16 ], [ %4, %7 ]
  %19 = getelementptr inbounds nuw i8, ptr %8, i64 8
  %20 = getelementptr inbounds nuw i8, ptr %8, i64 16
  %21 = getelementptr inbounds nuw i8, ptr %8, i64 24
  %22 = getelementptr inbounds nuw i8, ptr %8, i64 32
  %23 = getelementptr inbounds nuw i8, ptr %8, i64 40
  %24 = getelementptr inbounds nuw i8, ptr %8, i64 48
  %25 = getelementptr inbounds nuw i8, ptr %8, i64 56
  %26 = getelementptr inbounds nuw i8, ptr %8, i64 64
  %27 = getelementptr inbounds nuw i8, ptr %3, i64 16
  %28 = ptrtoint ptr %1 to i64
  %29 = getelementptr inbounds nuw i8, ptr %0, i64 96
  br label %30

30:                                               ; preds = %59, %18
  %.038 = phi i32 [ 0, %18 ], [ %42, %59 ]
  %.0 = phi ptr [ %1, %18 ], [ %.1, %59 ]
  call void @llvm.lifetime.start.p0(i64 72, ptr nonnull %8) #30
  %31 = load i32, ptr @MatchStackLimit, align 4, !tbaa !24
  store i32 %31, ptr %8, align 8, !tbaa !4
  %32 = load i64, ptr @RetryLimitInMatch, align 8, !tbaa !39
  store i64 %32, ptr %19, align 8, !tbaa !11
  %33 = load i64, ptr @RetryLimitInSearch, align 8, !tbaa !39
  store i64 %33, ptr %20, align 8, !tbaa !12
  store ptr null, ptr %21, align 8, !tbaa !15
  %34 = load ptr, ptr @DefaultProgressCallout, align 8, !tbaa !20
  store ptr %34, ptr %22, align 8, !tbaa !13
  %35 = load ptr, ptr @DefaultRetractionCallout, align 8, !tbaa !20
  store ptr %35, ptr %23, align 8, !tbaa !14
  store i32 0, ptr %24, align 8, !tbaa !40
  store ptr null, ptr %25, align 8, !tbaa !41
  store i32 0, ptr %26, align 8, !tbaa !42
  %36 = call fastcc i32 @search_in_range(ptr noundef %0, ptr noundef %1, ptr noundef %2, ptr noundef %.0, ptr noundef %2, ptr noundef %2, ptr noundef %3, i32 noundef %.040, ptr noundef nonnull %8)
  %37 = load ptr, ptr %25, align 8, !tbaa !41
  %.not.i.i = icmp eq ptr %37, null
  br i1 %.not.i.i, label %onig_search.exit, label %38

38:                                               ; preds = %30
  call void @free(ptr noundef nonnull %37) #30
  br label %onig_search.exit

onig_search.exit:                                 ; preds = %30, %38
  call void @llvm.lifetime.end.p0(i64 72, ptr nonnull %8) #30
  %39 = icmp sgt i32 %36, -1
  br i1 %39, label %40, label %61

40:                                               ; preds = %onig_search.exit
  %41 = call i32 %5(i32 noundef %.038, i32 noundef %36, ptr noundef %3, ptr noundef %6) #30
  %42 = add nuw nsw i32 %.038, 1
  %.not46 = icmp eq i32 %41, 0
  br i1 %.not46, label %43, label %.loopexit

43:                                               ; preds = %40
  %44 = load ptr, ptr %27, align 8, !tbaa !22
  %45 = load i32, ptr %44, align 4, !tbaa !24
  %46 = sext i32 %45 to i64
  %47 = ptrtoint ptr %.0 to i64
  %48 = sub i64 %47, %28
  %49 = icmp eq i64 %48, %46
  br i1 %49, label %50, label %57

50:                                               ; preds = %43
  %.not47 = icmp ult ptr %.0, %2
  br i1 %.not47, label %51, label %.loopexit

51:                                               ; preds = %50
  %52 = load ptr, ptr %29, align 8, !tbaa !97
  %53 = load ptr, ptr %52, align 8, !tbaa !120
  %54 = call i32 %53(ptr noundef %.0) #30
  %55 = sext i32 %54 to i64
  %56 = getelementptr inbounds i8, ptr %.0, i64 %55
  br label %59

57:                                               ; preds = %43
  %58 = getelementptr inbounds i8, ptr %1, i64 %46
  br label %59

59:                                               ; preds = %57, %51
  %.1 = phi ptr [ %56, %51 ], [ %58, %57 ]
  %60 = icmp ugt ptr %.1, %2
  br i1 %60, label %.loopexit, label %30

61:                                               ; preds = %onig_search.exit
  %62 = icmp eq i32 %36, -1
  %spec.select = select i1 %62, i32 %.038, i32 %36
  br label %.loopexit

.loopexit:                                        ; preds = %50, %59, %40, %61, %10
  %.037 = phi i32 [ -400, %10 ], [ %spec.select, %61 ], [ %42, %59 ], [ %42, %50 ], [ %41, %40 ]
  ret i32 %.037
}